
Discarded input sections

 .eh_frame      0x0000000000000000       0x90 core/corestart16.o
 .eh_frame      0x0000000000000000       0x68 core/main.o
 .eh_frame      0x0000000000000000       0xc0 core/cmdlist.o
 .eh_frame      0x0000000000000000       0x4c core/module.o
 .eh_frame      0x0000000000000000      0x2a0 core/net.o
 .eh_frame      0x0000000000000000      0x1a4 core/func.o
 .eh_frame      0x0000000000000000      0x120 core/task.o
 .eh_frame      0x0000000000000000      0x1b8 drv/pci/core.o
 .eh_frame      0x0000000000000000      0x140 drv/pci/rtl8139.o
 .eh_frame      0x0000000000000000      0x268 io/disp.o
 .eh_frame      0x0000000000000000       0x80 io/interrupt.o
 .eh_frame      0x0000000000000000       0xbc io/kbd.o
 .eh_frame      0x0000000000000000      0x188 io/hd.o
 .eh_frame      0x0000000000000000       0xdc mm/memory.o
 .eh_frame      0x0000000000000000      0x168 mm/page.o
 .eh_frame      0x0000000000000000       0xb8 fs/fs.o
 .eh_frame      0x0000000000000000      0x19c fs/ext2.o
 .eh_frame      0x0000000000000000      0x104 udp_cli/server.o
 .eh_frame      0x0000000000000000       0x70 crc32/crc32.o

Memory Configuration

Name             Origin             Length             Attributes
*default*        0x0000000000000000 0xffffffffffffffff

Linker script and memory map

LOAD core/corestart16.o
LOAD core/main.o
LOAD core/cmdlist.o
LOAD core/module.o
LOAD core/net.o
LOAD core/func.o
LOAD core/task.o
LOAD drv/pci/core.o
LOAD drv/pci/rtl8139.o
LOAD io/disp.o
LOAD io/interrupt.o
LOAD io/kbd.o
LOAD io/hd.o
LOAD mm/memory.o
LOAD mm/page.o
LOAD fs/block.o
LOAD fs/fs.o
LOAD fs/ext4.o
LOAD fs/ext2.o
LOAD udp_cli/server.o
LOAD crc32/crc32.o
LOAD core/corestart.o
LOAD core/entrance.o

.initsect       0x0000000000000000     0x1080
 *(.init.start)
 .init.start    0x0000000000000000       0x21 core/corestart.o
                0x0000000000000000                core_entry
                0x0000000000000009                jump2pe
 *(.init.text)
 *fill*         0x0000000000000021        0x3 00
 .init.text     0x0000000000000024      0x135 core/corestart16.o
                0x0000000000000024                corestart_16c
 *fill*         0x0000000000000159        0x3 00
 .init.text     0x000000000000015c       0x2d core/cmdlist.o
 *fill*         0x0000000000000189        0x3 00
 .init.text     0x000000000000018c       0x78 core/net.o
 .init.text     0x0000000000000204       0xc7 core/task.o
 *fill*         0x00000000000002cb        0x1 00
 .init.text     0x00000000000002cc       0x13 drv/pci/rtl8139.o
 *fill*         0x00000000000002df        0x1 00
 .init.text     0x00000000000002e0       0x67 io/disp.o
                0x00000000000002e0                disp_init
 *fill*         0x0000000000000347        0x1 00
 .init.text     0x0000000000000348       0x69 io/interrupt.o
                0x0000000000000348                interrupt_init
 *fill*         0x00000000000003b1        0x3 00
 .init.text     0x00000000000003b4       0x60 io/kbd.o
 .init.text     0x0000000000000414       0x80 io/hd.o
 .init.text     0x0000000000000494      0x126 mm/memory.o
 *fill*         0x00000000000005ba        0x2 00
 .init.text     0x00000000000005bc      0x159 mm/page.o
                0x00000000000005bc                buddy_init
 *fill*         0x0000000000000715        0x3 00
 .init.text     0x0000000000000718       0x77 fs/fs.o
 *fill*         0x000000000000078f        0x1 00
 .init.text     0x0000000000000790       0x1d udp_cli/server.o
                0x00000000000007ad                gdt_table = .
 *(.gdt.data)
 *fill*         0x00000000000007ad        0x3 00
 .gdt.data      0x00000000000007b0       0x20 core/corestart.o
                0x00000000000007d0                idt_table = .
 *(.idt.data)
 .idt.data      0x00000000000007d0      0x800 core/corestart.o
 *(.init.data)
 .init.data     0x0000000000000fd0        0xc core/corestart.o
 *(.coreentry.param)
 *fill*         0x0000000000000fdc        0x4 00
 .coreentry.param
                0x0000000000000fe0       0x60 core/main.o
                0x0000000000000fe0                bootparam
 .coreentry.param
                0x0000000000001040       0x20 io/hd.o
                0x0000000000001040                hd1_info
                0x0000000000001050                hd0_info
 .coreentry.param
                0x0000000000001060       0x20 mm/memory.o
                0x0000000000001060                raminfo_buf
                0x0000000000001080                symbol_inittext_end = .
                0x0000000000004000                . = 0x4000

.coresect       0x0000000000004000    0x26b60
 *(.text)
 .text          0x0000000000004000       0x45 core/corestart16.o
 *fill*         0x0000000000004045        0x3 00
 .text          0x0000000000004048      0x106 core/main.o
                0x0000000000004048                getbootparam
                0x00000000000040b0                loader_entry
 *fill*         0x000000000000414e        0x2 00
 .text          0x0000000000004150      0x387 core/cmdlist.o
                0x0000000000004168                testtask
                0x0000000000004194                cmd_loop
 *fill*         0x00000000000044d7        0x1 00
 .text          0x00000000000044d8       0x97 core/module.o
                0x00000000000044d8                init_module
 *fill*         0x000000000000456f        0x1 00
 .text          0x0000000000004570      0xbff core/net.o
                0x0000000000004570                arp_insert
                0x0000000000004730                arp_getmacaddr
                0x0000000000004804                checksum
                0x0000000000004880                do_fbproc
                0x0000000000004cf0                ipv4header_dump
                0x0000000000004dc8                getipv4totallen
                0x0000000000004ddc                udpheader_dump
                0x0000000000004e34                getudp_srcport
                0x0000000000004e48                getudp_dstport
                0x0000000000004e5c                getudp_len
                0x0000000000004e70                ipv4_ipswap
                0x0000000000004e90                ethii_macswap
                0x0000000000004eb0                rxef_insert
                0x0000000000004ed4                sockctx_register
                0x0000000000004f00                udp_send
 *fill*         0x000000000000516f        0x1 00
 .text          0x0000000000005170      0x23f core/func.o
                0x0000000000005170                memcpy
                0x000000000000519c                memset
                0x00000000000051c8                memset_u16
                0x00000000000051f8                memcmp
                0x000000000000524c                strlen
                0x0000000000005264                str2num
                0x00000000000052e4                isinteflag
                0x0000000000005318                parse_str_by_inteflag
                0x000000000000538c                x86_rdmsr
                0x00000000000053a0                x86_wrmsr
 *fill*         0x00000000000053af        0x1 00
 .text          0x00000000000053b0      0x3a9 core/task.o
                0x00000000000053b0                __switch_to
                0x00000000000053b4                schedule
                0x00000000000054c4                idleloop
                0x0000000000005584                exit
                0x00000000000056a4                kernel_thread
                0x0000000000005754                sleep
                0x0000000000005758                lapictimer
 *fill*         0x0000000000005759        0x3 00
 .text          0x000000000000575c      0x5e9 drv/pci/core.o
                0x000000000000575c                pci_dispcfgdata
                0x0000000000005814                pcidrv_register
                0x0000000000005890                pcidev_register
                0x00000000000058dc                getpciinfo
                0x0000000000005bf0                pci_init
 *fill*         0x0000000000005d45        0x3 00
 .text          0x0000000000005d48      0x4f0 drv/pci/rtl8139.o
 .text          0x0000000000006238      0xb98 io/disp.o
                0x0000000000006524                test_bks
                0x0000000000006530                n2c
                0x0000000000006540                printf
                0x0000000000006a28                sprintf
                0x0000000000006d10                dump_stack
                0x0000000000006d14                dump_ram
 .text          0x0000000000006dd0      0x119 io/interrupt.o
                0x0000000000006dd0                int10_public
                0x0000000000006e00                interrup_register
 *fill*         0x0000000000006ee9        0x3 00
 .text          0x0000000000006eec      0x17d io/kbd.o
                0x0000000000006f24                kbd_get_char
                0x0000000000006f54                kbdctrl_outport_r
                0x0000000000006f60                kbdctrl_outport_w
                0x0000000000006fac                kbd_int
 *fill*         0x0000000000007069        0x3 00
 .text          0x000000000000706c      0x75e io/hd.o
                0x000000000000706c                hd_drv_write
                0x00000000000071e0                hd_drv_read
                0x0000000000007704                hd_int
                0x00000000000077a4                gethd_dev
 *fill*         0x00000000000077ca        0x2 00
 .text          0x00000000000077cc      0x298 mm/memory.o
 .text          0x0000000000007a64      0x357 mm/page.o
                0x0000000000007a64                page2phyaddr
                0x0000000000007a90                phyaddr2page
                0x0000000000007aa4                page_alloc
                0x0000000000007bc4                page_free
                0x0000000000007d30                freepage_dump
 *fill*         0x0000000000007dbb        0x1 00
 .text          0x0000000000007dbc        0x0 fs/block.o
 .text          0x0000000000007dbc      0x16c fs/fs.o
 .text          0x0000000000007f28        0x0 fs/ext4.o
 .text          0x0000000000007f28      0x6e7 fs/ext2.o
 *fill*         0x000000000000860f        0x1 00
 .text          0x0000000000008610      0x30d udp_cli/server.o
 *fill*         0x000000000000891d        0x3 00
 .text          0x0000000000008920       0xbe crc32/crc32.o
                0x0000000000008920                crc32_raw
                0x0000000000008980                crc32
 *fill*         0x00000000000089de        0x2 00
 .text          0x00000000000089e0       0x1f core/corestart.o
 *fill*         0x00000000000089ff        0x1 00
 .text          0x0000000000008a00       0x7c core/entrance.o
                0x0000000000008a00                kbd_int_entrance
                0x0000000000008a2c                hd_int_entrance
                0x0000000000008a46                int10_public_entrance
                0x0000000000008a60                lapictimer_entrance
 *(.rodata*)
 .rodata.str1.4
                0x0000000000008a7c       0xac core/main.o
 .rodata.str1.1
                0x0000000000008b28       0x20 core/main.o
 .rodata        0x0000000000008b48       0x1a core/main.o
 .rodata.str1.1
                0x0000000000008b62       0x78 core/cmdlist.o
                                         0x7b (size before relaxing)
 *fill*         0x0000000000008bda        0x2 00
 .rodata.str1.4
                0x0000000000008bdc       0x29 core/cmdlist.o
 .rodata.str1.1
                0x0000000000008c05       0x21 core/module.o
                                         0x23 (size before relaxing)
 .rodata.str1.1
                0x0000000000008c26       0x65 core/net.o
                                         0x67 (size before relaxing)
 *fill*         0x0000000000008c8b        0x1 00
 .rodata.str1.4
                0x0000000000008c8c      0x149 core/net.o
                                        0x171 (size before relaxing)
 .rodata        0x0000000000008dd5       0x3f core/net.o
 .rodata.str1.4
                0x0000000000008e14       0x23 core/task.o
                                         0x4a (size before relaxing)
 .rodata.str1.1
                0x0000000000008e37       0x3a core/task.o
                                         0x49 (size before relaxing)
 .rodata        0x0000000000008e71       0x18 core/task.o
 *fill*         0x0000000000008e89        0x3 00
 .rodata.str1.4
                0x0000000000008e8c      0x25d drv/pci/core.o
 .rodata.str1.1
                0x00000000000090e9       0x4b drv/pci/core.o
 .rodata.str1.4
                0x0000000000009134       0x95 drv/pci/rtl8139.o
 .rodata.str1.1
                0x00000000000091c9       0x75 drv/pci/rtl8139.o
                                         0x77 (size before relaxing)
 .rodata.str1.1
                0x000000000000923e       0x3c io/disp.o
                                         0x4b (size before relaxing)
 *fill*         0x000000000000927a        0x2 00
 .rodata.str1.4
                0x000000000000927c      0x17e io/disp.o
                                        0x1a6 (size before relaxing)
 .rodata        0x00000000000093fa       0x17 io/disp.o
 *fill*         0x0000000000009411        0x3 00
 .rodata.str1.4
                0x0000000000009414       0x29 io/interrupt.o
 .rodata.str1.1
                0x000000000000943d       0x37 io/kbd.o
 *fill*         0x0000000000009474        0xc 00
 .rodata        0x0000000000009480      0x100 io/kbd.o
 .rodata.str1.1
                0x0000000000009580      0x138 io/hd.o
 .rodata.str1.4
                0x00000000000096b8      0x1e8 io/hd.o
                                        0x210 (size before relaxing)
 .rodata        0x00000000000098a0       0x19 io/hd.o
 .rodata.str1.1
                0x00000000000098b9       0x9f mm/memory.o
 .rodata.str1.4
                0x0000000000009958      0x1ba mm/memory.o
 *fill*         0x0000000000009b12        0x2 00
 .rodata.str1.4
                0x0000000000009b14       0xa4 mm/page.o
                                         0xec (size before relaxing)
 .rodata.str1.1
                0x0000000000009bb8       0xb2 mm/page.o
                                         0xc1 (size before relaxing)
 .rodata        0x0000000000009c6a       0x1b mm/page.o
 .rodata.str1.1
                0x0000000000009c85       0x46 fs/fs.o
                                         0x4f (size before relaxing)
 *fill*         0x0000000000009ccb        0x1 00
 .rodata.str1.4
                0x0000000000009ccc       0x28 fs/fs.o
 .rodata.str1.1
                0x0000000000009cf4        0x5 fs/ext4.o
 .rodata.str1.1
                0x0000000000009cf9       0x4d fs/ext2.o
                                         0x52 (size before relaxing)
 *fill*         0x0000000000009d46        0x2 00
 .rodata.str1.4
                0x0000000000009d48       0x59 fs/ext2.o
                                         0x81 (size before relaxing)
 .rodata        0x0000000000009da1        0xa fs/ext2.o
 .rodata.str1.1
                0x0000000000009dab       0x87 udp_cli/server.o
 *fill*         0x0000000000009e32        0x2 00
 .rodata.str1.4
                0x0000000000009e34       0xb4 udp_cli/server.o
                                         0xb1 (size before relaxing)
                0x0000000000009f00                . = ALIGN (0x40)
 *fill*         0x0000000000009ee8       0x18 00
                0x0000000000009f00                fsdesc_array = .
 *(.array.fs)
 .array.fs      0x0000000000009f00       0x40 fs/ext4.o
                0x0000000000009f00                ext4_fs
 .array.fs      0x0000000000009f40       0x40 fs/ext2.o
                0x0000000000009f40                ext2_fs
                0x0000000000009f80                fsdesc_array_end = .
                0x0000000000009f80                cmddesc_array = .
 *(.array.cmd)
 .array.cmd     0x0000000000009f80       0x20 core/cmdlist.o
                0x0000000000009f80                cmd_help
                0x0000000000009f90                cmd_test
 .array.cmd     0x0000000000009fa0       0x10 drv/pci/core.o
                0x0000000000009fa0                cmd_dispcidev
 .array.cmd     0x0000000000009fb0       0x10 drv/pci/rtl8139.o
                0x0000000000009fb0                cmd_rtl8139stat
 .array.cmd     0x0000000000009fc0       0x10 io/kbd.o
                0x0000000000009fc0                cmd_reboot
 .array.cmd     0x0000000000009fd0       0x10 io/hd.o
                0x0000000000009fd0                cmd_hdop
 .array.cmd     0x0000000000009fe0       0x20 mm/memory.o
                0x0000000000009fe0                cmd_iorw
                0x0000000000009ff0                cmd_ramdisp
 .array.cmd     0x000000000000a000       0x20 fs/fs.o
                0x000000000000a000                cmd_cd
                0x000000000000a010                cmd_ls
 .array.cmd     0x000000000000a020       0x10 udp_cli/server.o
                0x000000000000a020                cmd_udpclireset
                0x000000000000a030                cmddesc_array_end = .
                0x000000000000a030                moduleinit_array_0 = .
 *(.array.moduleinit_0)
 .array.moduleinit_0
                0x000000000000a030        0x4 mm/memory.o
                0x000000000000a034                moduleinit_array_0_end = .
                0x000000000000a034                moduleinit_array_1 = .
 *(.array.moduleinit_1)
 .array.moduleinit_1
                0x000000000000a034        0x4 core/task.o
                0x000000000000a038                moduleinit_array_1_end = .
                0x000000000000a038                moduleinit_array_2 = .
 *(.array.moduleinit_2)
 .array.moduleinit_2
                0x000000000000a038        0x4 io/kbd.o
 .array.moduleinit_2
                0x000000000000a03c        0x4 io/hd.o
 .array.moduleinit_2
                0x000000000000a040        0x4 fs/fs.o
                0x000000000000a044                moduleinit_array_2_end = .
                0x000000000000a044                moduleinit_array_3 = .
 *(.array.moduleinit_3)
 .array.moduleinit_3
                0x000000000000a044        0x4 core/net.o
                0x000000000000a048                moduleinit_array_3_end = .
                0x000000000000a048                moduleinit_array_4 = .
 *(.array.moduleinit_4)
                0x000000000000a048                moduleinit_array_4_end = .
                0x000000000000a048                moduleinit_array_5 = .
 *(.array.moduleinit_5)
 .array.moduleinit_5
                0x000000000000a048        0x4 drv/pci/rtl8139.o
                0x000000000000a04c                moduleinit_array_5_end = .
                0x000000000000a04c                moduleinit_array_6 = .
 *(.array.moduleinit_6)
 .array.moduleinit_6
                0x000000000000a04c        0x4 drv/pci/core.o
                0x000000000000a050                moduleinit_array_6_end = .
                0x000000000000a050                moduleinit_array_7 = .
 *(.array.moduleinit_7)
 .array.moduleinit_7
                0x000000000000a050        0x4 core/cmdlist.o
 .array.moduleinit_7
                0x000000000000a054        0x4 udp_cli/server.o
                0x000000000000a058                moduleinit_array_7_end = .
 *(.data)
 .data          0x000000000000a058        0x0 core/corestart16.o
 .data          0x000000000000a058        0x0 core/main.o
 .data          0x000000000000a058        0x0 core/cmdlist.o
 *fill*         0x000000000000a058        0x8 00
 .data          0x000000000000a060       0x40 core/module.o
                0x000000000000a060                moduleinitlist
 .data          0x000000000000a0a0      0x198 core/net.o
 .data          0x000000000000a238        0x0 core/func.o
 .data          0x000000000000a238       0x28 core/task.o
                0x000000000000a238                task_eq_lock
                0x000000000000a240                task_sq_lock
                0x000000000000a248                task_rq_lock
 .data          0x000000000000a260       0x10 drv/pci/core.o
 .data          0x000000000000a270       0x1c drv/pci/rtl8139.o
 .data          0x000000000000a28c       0x14 io/disp.o
                0x000000000000a28c                vga_console
 .data          0x000000000000a2a0        0x0 io/interrupt.o
 .data          0x000000000000a2a0        0x0 io/kbd.o
 .data          0x000000000000a2a0       0xb8 io/hd.o
                0x000000000000a2a0                hdpart_desc
 .data          0x000000000000a358        0x4 mm/memory.o
 *fill*         0x000000000000a35c        0x4 00
 .data          0x000000000000a360       0x24 mm/page.o
                0x000000000000a360                range_name
 .data          0x000000000000a384        0x0 fs/block.o
 *fill*         0x000000000000a384       0x1c 00
 .data          0x000000000000a3a0       0x20 fs/fs.o
 .data          0x000000000000a3c0        0x0 fs/ext4.o
 .data          0x000000000000a3c0        0x0 fs/ext2.o
 .data          0x000000000000a3c0       0x20 udp_cli/server.o
 .data          0x000000000000a3e0        0x0 crc32/crc32.o
 .data          0x000000000000a3e0        0x0 core/corestart.o
 .data          0x000000000000a3e0        0x0 core/entrance.o
 *(.bss)
 .bss           0x000000000000a3e0        0x0 core/corestart16.o
 .bss           0x000000000000a3e0    0x20000 core/main.o
                0x000000000000a3e0                testbuff
 .bss           0x000000000002a3e0       0x40 core/cmdlist.o
                0x000000000002a3e0                n_command
 .bss           0x000000000002a420        0x0 core/module.o
 .bss           0x000000000002a420        0x8 core/net.o
 .bss           0x000000000002a428        0x0 core/func.o
 .bss           0x000000000002a428        0x4 core/task.o
 .bss           0x000000000002a42c        0x0 drv/pci/core.o
 *fill*         0x000000000002a42c       0x14 00
 .bss           0x000000000002a440       0x64 drv/pci/rtl8139.o
 .bss           0x000000000002a4a4       0x10 io/disp.o
                0x000000000002a4a4                vga_param_s
 *fill*         0x000000000002a4b4        0xc 00
 .bss           0x000000000002a4c0       0x90 io/interrupt.o
 *fill*         0x000000000002a550       0x10 00
 .bss           0x000000000002a560      0x106 io/kbd.o
                0x000000000002a560                kbd_rawinput_buff
 *fill*         0x000000000002a666       0x1a 00
 .bss           0x000000000002a680       0x74 io/hd.o
                0x000000000002a680                cursel_partition
                0x000000000002a6a0                hd0_pdt
 .bss           0x000000000002a6f4        0x8 mm/memory.o
                0x000000000002a6f4                ram_size
 *fill*         0x000000000002a6fc        0x4 00
 .bss           0x000000000002a700       0x50 mm/page.o
                0x000000000002a700                fpage_list
                0x000000000002a748                n_pages
                0x000000000002a74c                pagelist
 .bss           0x000000000002a750        0x0 fs/block.o
 .bss           0x000000000002a750        0x4 fs/fs.o
                0x000000000002a750                n_supportfs
 .bss           0x000000000002a754        0x0 fs/ext4.o
 *fill*         0x000000000002a754        0xc 00
 .bss           0x000000000002a760      0x400 fs/ext2.o
 .bss           0x000000000002ab60        0x0 udp_cli/server.o
 .bss           0x000000000002ab60        0x0 crc32/crc32.o
 .bss           0x000000000002ab60        0x0 core/corestart.o
 .bss           0x000000000002ab60        0x0 core/entrance.o
                0x000000000002ab60                symbol_sys_end = .

.iplt           0x000000000002ab60        0x0
 .iplt          0x0000000000000000        0x0 core/corestart16.o

.igot.plt       0x000000000002ab60        0x0
 .igot.plt      0x0000000000000000        0x0 core/corestart16.o

.rel.dyn        0x000000000002ab60        0x0
 .rel.iplt      0x0000000000000000        0x0 core/corestart16.o
 .rel.init.text
                0x0000000000000000        0x0 core/corestart16.o
 .rel.text      0x0000000000000000        0x0 core/corestart16.o
 .rel.array.cmd
                0x0000000000000000        0x0 core/corestart16.o
 .rel.data      0x0000000000000000        0x0 core/corestart16.o

/DISCARD/
 *(.exit.text)
 *(.cpuexit.text)
 *(.memexit.text)
 *(.exit.data)
 *(.cpuexit.data)
 *(.cpuexit.rodata)
 *(.memexit.data)
 *(.memexit.rodata)
 *(.exitcall.exit)
 *(.discard)
 *(.discard.*)
 *(.eh_frame)
OUTPUT(core.elf elf32-i386)

.comment        0x0000000000000000       0x2a
 .comment       0x0000000000000000       0x2a core/corestart16.o
                                         0x2b (size before relaxing)
 .comment       0x0000000000000000       0x2b core/main.o
 .comment       0x0000000000000000       0x2b core/cmdlist.o
 .comment       0x0000000000000000       0x2b core/module.o
 .comment       0x0000000000000000       0x2b core/net.o
 .comment       0x0000000000000000       0x2b core/func.o
 .comment       0x0000000000000000       0x2b core/task.o
 .comment       0x0000000000000000       0x2b drv/pci/core.o
 .comment       0x0000000000000000       0x2b drv/pci/rtl8139.o
 .comment       0x0000000000000000       0x2b io/disp.o
 .comment       0x0000000000000000       0x2b io/interrupt.o
 .comment       0x0000000000000000       0x2b io/kbd.o
 .comment       0x0000000000000000       0x2b io/hd.o
 .comment       0x0000000000000000       0x2b mm/memory.o
 .comment       0x0000000000000000       0x2b mm/page.o
 .comment       0x0000000000000000       0x2b fs/block.o
 .comment       0x0000000000000000       0x2b fs/fs.o
 .comment       0x0000000000000000       0x2b fs/ext4.o
 .comment       0x0000000000000000       0x2b fs/ext2.o
 .comment       0x0000000000000000       0x2b udp_cli/server.o
 .comment       0x0000000000000000       0x2b crc32/crc32.o

.note.GNU-stack
                0x0000000000000000        0x0
 .note.GNU-stack
                0x0000000000000000        0x0 core/corestart16.o
 .note.GNU-stack
                0x0000000000000000        0x0 core/main.o
 .note.GNU-stack
                0x0000000000000000        0x0 core/cmdlist.o
 .note.GNU-stack
                0x0000000000000000        0x0 core/module.o
 .note.GNU-stack
                0x0000000000000000        0x0 core/net.o
 .note.GNU-stack
                0x0000000000000000        0x0 core/func.o
 .note.GNU-stack
                0x0000000000000000        0x0 core/task.o
 .note.GNU-stack
                0x0000000000000000        0x0 drv/pci/core.o
 .note.GNU-stack
                0x0000000000000000        0x0 drv/pci/rtl8139.o
 .note.GNU-stack
                0x0000000000000000        0x0 io/disp.o
 .note.GNU-stack
                0x0000000000000000        0x0 io/interrupt.o
 .note.GNU-stack
                0x0000000000000000        0x0 io/kbd.o
 .note.GNU-stack
                0x0000000000000000        0x0 io/hd.o
 .note.GNU-stack
                0x0000000000000000        0x0 mm/memory.o
 .note.GNU-stack
                0x0000000000000000        0x0 mm/page.o
 .note.GNU-stack
                0x0000000000000000        0x0 fs/block.o
 .note.GNU-stack
                0x0000000000000000        0x0 fs/fs.o
 .note.GNU-stack
                0x0000000000000000        0x0 fs/ext4.o
 .note.GNU-stack
                0x0000000000000000        0x0 fs/ext2.o
 .note.GNU-stack
                0x0000000000000000        0x0 udp_cli/server.o
 .note.GNU-stack
                0x0000000000000000        0x0 crc32/crc32.o
